; Function Attrs: nounwind uwtable
define ptr @l_Array_forIn_x27Unsafe_loop___at_ImportCompletion_AvailableImports_toImportTrie___spec__1(ptr readnone captures(none) %0, ptr readnone captures(none) %1, ptr noundef readonly captures(none) %2, i64 noundef %3, i64 noundef %4, ptr noundef %5) local_unnamed_addr #0 {
  %.not36 = icmp ult i64 %4, %3
  br i1 %.not36, label %.lr.ph, label %._crit_edge

.lr.ph:                                           ; preds = %6
  %7 = getelementptr inbounds nuw i8, ptr %2, i64 24
  br label %8

8:                                                ; preds = %.lr.ph, %33
  %.01638 = phi i64 [ %4, %.lr.ph ], [ %35, %33 ]
  %.01837 = phi ptr [ %5, %.lr.ph ], [ %34, %33 ]
  %9 = getelementptr inbounds nuw [0 x ptr], ptr %7, i64 0, i64 %.01638
  %10 = load ptr, ptr %9, align 8, !tbaa !4
  %11 = ptrtoint ptr %10 to i64
  %12 = and i64 %11, 1
  %.not.i21 = icmp eq i64 %12, 0
  br i1 %.not.i21, label %14, label %lean_inc.exit.thread

lean_inc.exit.thread:                             ; preds = %8
  %13 = tail call ptr @l_Lean_NameTrie_insert___rarg(ptr noundef %.01837, ptr noundef %10, ptr noundef %10) #5
  br label %33

14:                                               ; preds = %8
  %.val.i.i = load i32, ptr %10, align 4, !tbaa !8
  %15 = icmp sgt i32 %.val.i.i, 0
  br i1 %15, label %16, label %18, !prof !11

16:                                               ; preds = %14
  %17 = add nuw i32 %.val.i.i, 1
  store i32 %17, ptr %10, align 4, !tbaa !8
  br label %20

18:                                               ; preds = %14
  %.not.i.i = icmp eq i32 %.val.i.i, 0
  br i1 %.not.i.i, label %.thread25, label %19

19:                                               ; preds = %18
  tail call void @lean_inc_ref_cold(ptr noundef nonnull %10) #5
  %.val.i.pr = load i32, ptr %10, align 4, !tbaa !8
  br label %20

20:                                               ; preds = %16, %19
  %.val.i = phi i32 [ %17, %16 ], [ %.val.i.pr, %19 ]
  %21 = icmp sgt i32 %.val.i, 0
  br i1 %21, label %22, label %24, !prof !12

22:                                               ; preds = %20
  %23 = add nuw i32 %.val.i, 1
  store i32 %23, ptr %10, align 4, !tbaa !8
  br label %.thread25

24:                                               ; preds = %20
  %.not.i22 = icmp eq i32 %.val.i, 0
  br i1 %.not.i22, label %.thread25, label %25

25:                                               ; preds = %24
  tail call void @lean_inc_ref_cold(ptr noundef nonnull %10) #5
  br label %.thread25

.thread25:                                        ; preds = %24, %18, %25, %22
  %26 = tail call ptr @l_Lean_NameTrie_insert___rarg(ptr noundef %.01837, ptr noundef nonnull %10, ptr noundef nonnull %10) #5
  %27 = load i32, ptr %10, align 4, !tbaa !8
  %28 = icmp sgt i32 %27, 1
  br i1 %28, label %29, label %31, !prof !11

29:                                               ; preds = %.thread25
  %30 = add nsw i32 %27, -1
  store i32 %30, ptr %10, align 4, !tbaa !8
  br label %33

31:                                               ; preds = %.thread25
  %.not.i = icmp eq i32 %27, 0
  br i1 %.not.i, label %33, label %32

32:                                               ; preds = %31
  tail call void @lean_dec_ref_cold(ptr noundef nonnull %10) #5
  br label %33

33:                                               ; preds = %lean_inc.exit.thread, %29, %31, %32
  %34 = phi ptr [ %13, %lean_inc.exit.thread ], [ %26, %29 ], [ %26, %31 ], [ %26, %32 ]
  %35 = add nuw i64 %.01638, 1
  %exitcond.not = icmp eq i64 %35, %3
  br i1 %exitcond.not, label %._crit_edge, label %8

._crit_edge:                                      ; preds = %33, %6
  %.018.lcssa = phi ptr [ %5, %6 ], [ %34, %33 ]
  ret ptr %.018.lcssa
}